target datalayout = "e-m:e-p270:32:32-p271:32:32-p272:64:64-i64:64-i128:128-f80:128-n8:16:32:64-S128"
target triple = "x86_64-pc-linux-gnu"

@err_thread_local = internal global i32 0, align 4

; Function Attrs: nounwind uwtable
define void @err_unshelve_state(ptr noundef %0) #0 {
  %2 = alloca ptr, align 8
  store ptr %0, ptr %2, align 8, !tbaa !16
  %3 = load ptr, ptr %2, align 8, !tbaa !16
  %4 = icmp ne ptr %3, inttoptr (i64 -1 to ptr)
  br i1 %4, label %5, label %8

5:                                                ; preds = %1
  %6 = load ptr, ptr %2, align 8, !tbaa !16
  %7 = call i32 @CRYPTO_THREAD_set_local(ptr noundef @err_thread_local, ptr noundef %6)
  br label %8

8:                                                ; preds = %5, %1
  ret void
}