; Function Attrs: nounwind uwtable
define void @err_unshelve_state(ptr noundef %0) local_unnamed_addr #0 {
  %.not = icmp eq ptr %0, inttoptr (i64 -1 to ptr)
  br i1 %.not, label %4, label %2

2:                                                ; preds = %1
  %3 = tail call i32 @CRYPTO_THREAD_set_local(ptr noundef nonnull @err_thread_local, ptr noundef %0) #10
  br label %4

4:                                                ; preds = %2, %1
  ret void
}